; ModuleID = '43/908.c'
source_filename = "43/908.c"
target datalayout = "e-m:e-p270:32:32-p271:32:32-p272:64:64-i64:64-f80:128-n8:16:32:64-S128"
target triple = "x86_64-pc-linux-gnu"

@.str = private unnamed_addr constant [3 x i8] c"%d\00", align 1
@.str.1 = private unnamed_addr constant [7 x i8] c"%d %d\0A\00", align 1

; Function Attrs: noinline nounwind uwtable
define dso_local i32 @main() #0 {
  %1 = alloca i32, align 4
  %2 = alloca i32, align 4
  %3 = alloca i32, align 4
  %4 = alloca i32, align 4
  %5 = alloca i32, align 4
  %6 = alloca i32, align 4
  %7 = alloca i32, align 4
  store i32 0, i32* %1, align 4
  %8 = call i32 (i8*, ...) @__isoc99_scanf(i8* getelementptr inbounds ([3 x i8], [3 x i8]* @.str, i64 0, i64 0), i32* %2)
  store i32 2, i32* %3, align 4
  br label %9

9:                                                ; preds = %65, %0
  %10 = load i32, i32* %3, align 4
  %11 = load i32, i32* %2, align 4
  %12 = add nsw i32 %11, 1
  %13 = sdiv i32 %12, 2
  %14 = icmp sle i32 %10, %13
  br i1 %14, label %15, label %68

15:                                               ; preds = %9
  store i32 1, i32* %7, align 4
  store i32 2, i32* %5, align 4
  br label %16

16:                                               ; preds = %28, %15
  %17 = load i32, i32* %5, align 4
  %18 = load i32, i32* %3, align 4
  %19 = icmp slt i32 %17, %18
  br i1 %19, label %20, label %33

20:                                               ; preds = %16
  %21 = load i32, i32* %7, align 4
  %22 = icmp ne i32 %21, 0
  br i1 %22, label %23, label %28

23:                                               ; preds = %20
  %24 = load i32, i32* %3, align 4
  %25 = load i32, i32* %5, align 4
  %26 = srem i32 %24, %25
  %27 = icmp ne i32 %26, 0
  br label %28

28:                                               ; preds = %23, %20
  %29 = phi i1 [ false, %20 ], [ %27, %23 ]
  %30 = zext i1 %29 to i32
  store i32 %30, i32* %7, align 4
  %31 = load i32, i32* %5, align 4
  %32 = add nsw i32 %31, 1
  store i32 %32, i32* %5, align 4
  br label %16

33:                                               ; preds = %16
  %34 = load i32, i32* %7, align 4
  %35 = icmp ne i32 %34, 0
  br i1 %35, label %36, label %65

36:                                               ; preds = %33
  %37 = load i32, i32* %2, align 4
  %38 = load i32, i32* %3, align 4
  %39 = sub nsw i32 %37, %38
  store i32 %39, i32* %4, align 4
  store i32 1, i32* %7, align 4
  store i32 2, i32* %5, align 4
  br label %40

40:                                               ; preds = %52, %36
  %41 = load i32, i32* %5, align 4
  %42 = load i32, i32* %4, align 4
  %43 = icmp slt i32 %41, %42
  br i1 %43, label %44, label %57

44:                                               ; preds = %40
  %45 = load i32, i32* %7, align 4
  %46 = icmp ne i32 %45, 0
  br i1 %46, label %47, label %52

47:                                               ; preds = %44
  %48 = load i32, i32* %4, align 4
  %49 = load i32, i32* %5, align 4
  %50 = srem i32 %48, %49
  %51 = icmp ne i32 %50, 0
  br label %52

52:                                               ; preds = %47, %44
  %53 = phi i1 [ false, %44 ], [ %51, %47 ]
  %54 = zext i1 %53 to i32
  store i32 %54, i32* %7, align 4
  %55 = load i32, i32* %5, align 4
  %56 = add nsw i32 %55, 1
  store i32 %56, i32* %5, align 4
  br label %40

57:                                               ; preds = %40
  %58 = load i32, i32* %7, align 4
  %59 = icmp ne i32 %58, 0
  br i1 %59, label %60, label %64

60:                                               ; preds = %57
  %61 = load i32, i32* %3, align 4
  %62 = load i32, i32* %4, align 4
  %63 = call i32 (i8*, ...) @printf(i8* getelementptr inbounds ([7 x i8], [7 x i8]* @.str.1, i64 0, i64 0), i32 %61, i32 %62)
  br label %64

64:                                               ; preds = %60, %57
  br label %65

65:                                               ; preds = %64, %33
  %66 = load i32, i32* %3, align 4
  %67 = add nsw i32 %66, 1
  store i32 %67, i32* %3, align 4
  br label %9

68:                                               ; preds = %9
  %69 = load i32, i32* %1, align 4
  ret i32 %69
}

declare dso_local i32 @__isoc99_scanf(i8*, ...) #1

declare dso_local i32 @printf(i8*, ...) #1


!llvm.module.flags = !{!0}
!llvm.ident = !{!1}

!0 = !{i32 1, !"wchar_size", i32 4}
!1 = !{!"clang version 10.0.0-4ubuntu1 "}
